target datalayout = "e-m:e-p270:32:32-p271:32:32-p272:64:64-i64:64-i128:128-f80:128-n8:16:32:64-S128"
target triple = "x86_64-pc-linux-gnu"

@.str.121 = private unnamed_addr constant [1 x i8] zeroinitializer, align 1
@.str.152 = private unnamed_addr constant [16 x i8] c"%lf,%lf,%lf,%lf\00", align 1

; Function Attrs: nounwind uwtable
define internal ptr @bbOf(ptr noundef %0, ptr noundef %1, i1 noundef zeroext %2) #0 {
  %4 = alloca ptr, align 8
  %5 = alloca ptr, align 8
  %6 = alloca i8, align 1
  %7 = alloca double, align 8
  %8 = alloca double, align 8
  %9 = alloca double, align 8
  %10 = alloca double, align 8
  %11 = alloca ptr, align 8
  %12 = alloca ptr, align 8
  %13 = alloca i64, align 8
  store ptr %0, ptr %4, align 8, !tbaa !74
  store ptr %1, ptr %5, align 8, !tbaa !7
  %14 = zext i1 %2 to i8
  store i8 %14, ptr %6, align 1, !tbaa !9
  call void @llvm.lifetime.start.p0(i64 8, ptr %7) #16
  call void @llvm.lifetime.start.p0(i64 8, ptr %8) #16
  call void @llvm.lifetime.start.p0(i64 8, ptr %9) #16
  call void @llvm.lifetime.start.p0(i64 8, ptr %10) #16
  call void @llvm.lifetime.start.p0(i64 8, ptr %11) #16
  call void @llvm.lifetime.start.p0(i64 8, ptr %12) #16
  %15 = load ptr, ptr %5, align 8, !tbaa !7
  %16 = call i32 (ptr, ptr, ...) @__isoc99_sscanf(ptr noundef %15, ptr noundef @.str.152, ptr noundef %7, ptr noundef %8, ptr noundef %9, ptr noundef %10) #16
  %17 = icmp eq i32 %16, 4
  br i1 %17, label %18, label %49

18:                                               ; preds = %3
  %19 = load ptr, ptr %5, align 8, !tbaa !7
  %20 = call ptr @strchr(ptr noundef %19, i32 noundef 44) #20
  store ptr %20, ptr %12, align 8, !tbaa !7
  %21 = load ptr, ptr %12, align 8, !tbaa !7
  %22 = getelementptr inbounds i8, ptr %21, i64 1
  %23 = call ptr @strchr(ptr noundef %22, i32 noundef 44) #20
  store ptr %23, ptr %12, align 8, !tbaa !7
  %24 = load i8, ptr %6, align 1, !tbaa !9, !range !35, !noundef !36
  %25 = trunc i8 %24 to i1
  br i1 %25, label %26, label %43

26:                                               ; preds = %18
  call void @llvm.lifetime.start.p0(i64 8, ptr %13) #16
  %27 = load ptr, ptr %12, align 8, !tbaa !7
  %28 = load ptr, ptr %5, align 8, !tbaa !7
  %29 = ptrtoint ptr %27 to i64
  %30 = ptrtoint ptr %28 to i64
  %31 = sub i64 %29, %30
  store i64 %31, ptr %13, align 8, !tbaa !34
  %32 = load ptr, ptr %4, align 8, !tbaa !74
  %33 = load i64, ptr %13, align 8, !tbaa !34
  %34 = add i64 %33, 1
  %35 = call ptr @exstralloc(ptr noundef %32, i64 noundef %34)
  store ptr %35, ptr %11, align 8, !tbaa !7
  %36 = load ptr, ptr %11, align 8, !tbaa !7
  %37 = load ptr, ptr %5, align 8, !tbaa !7
  %38 = load i64, ptr %13, align 8, !tbaa !34
  %39 = call ptr @strncpy(ptr noundef %36, ptr noundef %37, i64 noundef %38) #16
  %40 = load ptr, ptr %11, align 8, !tbaa !7
  %41 = load i64, ptr %13, align 8, !tbaa !34
  %42 = getelementptr inbounds nuw i8, ptr %40, i64 %41
  store i8 0, ptr %42, align 1, !tbaa !97
  call void @llvm.lifetime.end.p0(i64 8, ptr %13) #16
  br label %48

43:                                               ; preds = %18
  %44 = load ptr, ptr %4, align 8, !tbaa !74
  %45 = load ptr, ptr %12, align 8, !tbaa !7
  %46 = getelementptr inbounds i8, ptr %45, i64 1
  %47 = call ptr @exstring(ptr noundef %44, ptr noundef %46)
  store ptr %47, ptr %11, align 8, !tbaa !7
  br label %48

48:                                               ; preds = %43, %26
  br label %50

49:                                               ; preds = %3
  store ptr @.str.121, ptr %11, align 8, !tbaa !7
  br label %50

50:                                               ; preds = %49, %48
  %51 = load ptr, ptr %11, align 8, !tbaa !7
  call void @llvm.lifetime.end.p0(i64 8, ptr %12) #16
  call void @llvm.lifetime.end.p0(i64 8, ptr %11) #16
  call void @llvm.lifetime.end.p0(i64 8, ptr %10) #16
  call void @llvm.lifetime.end.p0(i64 8, ptr %9) #16
  call void @llvm.lifetime.end.p0(i64 8, ptr %8) #16
  call void @llvm.lifetime.end.p0(i64 8, ptr %7) #16
  ret ptr %51
}