; Function Attrs: nounwind uwtable
define internal fastcc ptr @bbOf(ptr noundef %0, ptr noundef %1, i1 noundef zeroext %2) unnamed_addr #0 {
  %4 = alloca double, align 8
  %5 = alloca double, align 8
  %6 = alloca double, align 8
  %7 = alloca double, align 8
  call void @llvm.lifetime.start.p0(i64 8, ptr nonnull %4) #25
  call void @llvm.lifetime.start.p0(i64 8, ptr nonnull %5) #25
  call void @llvm.lifetime.start.p0(i64 8, ptr nonnull %6) #25
  call void @llvm.lifetime.start.p0(i64 8, ptr nonnull %7) #25
  %8 = call i32 (ptr, ptr, ...) @__isoc99_sscanf(ptr noundef %1, ptr noundef nonnull @.str.152, ptr noundef nonnull %4, ptr noundef nonnull %5, ptr noundef nonnull %6, ptr noundef nonnull %7) #25
  %9 = icmp eq i32 %8, 4
  br i1 %9, label %10, label %25

10:                                               ; preds = %3
  %11 = call ptr @strchr(ptr noundef nonnull dereferenceable(1) %1, i32 noundef 44) #28
  %12 = getelementptr inbounds nuw i8, ptr %11, i64 1
  %13 = call ptr @strchr(ptr noundef nonnull dereferenceable(1) %12, i32 noundef 44) #28
  br i1 %2, label %14, label %22

14:                                               ; preds = %10
  %15 = ptrtoint ptr %13 to i64
  %16 = ptrtoint ptr %1 to i64
  %17 = sub i64 %15, %16
  %18 = add i64 %17, 1
  %19 = call ptr @exstralloc(ptr noundef %0, i64 noundef %18) #25
  %20 = call ptr @strncpy(ptr noundef %19, ptr noundef nonnull %1, i64 noundef %17) #25
  %21 = getelementptr inbounds nuw i8, ptr %19, i64 %17
  store i8 0, ptr %21, align 1, !tbaa !65
  br label %25

22:                                               ; preds = %10
  %23 = getelementptr inbounds nuw i8, ptr %13, i64 1
  %24 = call ptr @exstring(ptr noundef %0, ptr noundef nonnull %23) #25
  br label %25

25:                                               ; preds = %3, %14, %22
  %.0 = phi ptr [ %19, %14 ], [ %24, %22 ], [ @.str.121, %3 ]
  call void @llvm.lifetime.end.p0(i64 8, ptr nonnull %7) #25
  call void @llvm.lifetime.end.p0(i64 8, ptr nonnull %6) #25
  call void @llvm.lifetime.end.p0(i64 8, ptr nonnull %5) #25
  call void @llvm.lifetime.end.p0(i64 8, ptr nonnull %4) #25
  ret ptr %.0
}